; Function Attrs: mustprogress nofree nounwind uwtable
define dso_local noundef zeroext i1 @_Z6isFileRKNSt7__cxx1112basic_stringIcSt11char_traitsIcESaIcEEE(ptr noundef nonnull readonly align 8 captures(none) dereferenceable(32) %0) local_unnamed_addr #10 {
  %2 = alloca %struct.stat, align 8
  call void @llvm.lifetime.start.p0(i64 144, ptr nonnull %2) #24
  call void @llvm.memset.p0.i64(ptr noundef nonnull align 8 dereferenceable(144) %2, i8 0, i64 144, i1 false)
  %3 = load ptr, ptr %0, align 8, !tbaa !14
  %4 = call i32 @lstat(ptr noundef %3, ptr noundef nonnull %2) #24
  %5 = getelementptr inbounds nuw i8, ptr %2, i64 24
  %6 = load i32, ptr %5, align 8, !tbaa !63
  %7 = and i32 %6, 61440
  %8 = icmp eq i32 %7, 32768
  call void @llvm.lifetime.end.p0(i64 144, ptr nonnull %2) #24
  ret i1 %8
}